target datalayout = "e-m:e-p270:32:32-p271:32:32-p272:64:64-i64:64-i128:128-f80:128-n8:16:32:64-S128"
target triple = "x86_64-pc-linux-gnu"

%"class.clang::api_notes::APINotesWriter" = type { %"class.std::unique_ptr.219" }
%"class.std::unique_ptr.219" = type { %"struct.std::__uniq_ptr_data.220" }
%"struct.std::__uniq_ptr_data.220" = type { %"class.std::__uniq_ptr_impl.221" }
%"class.std::__uniq_ptr_impl.221" = type { %"class.std::tuple.222" }
%"class.std::tuple.222" = type { %"struct.std::_Tuple_impl.223" }
%"struct.std::_Tuple_impl.223" = type { %"struct.std::_Head_base.226" }
%"struct.std::_Head_base.226" = type { ptr }

; Function Attrs: mustprogress nounwind uwtable
define linkonce_odr hidden noundef nonnull align 1 dereferenceable(1) ptr @_ZNSt10_Head_baseILm1ESt14default_deleteIN5clang9api_notes14APINotesWriter14ImplementationEELb1EE7_M_headERS6_(ptr noundef nonnull align 1 dereferenceable(1) %0) #0 comdat align 2 {
  %2 = alloca ptr, align 8
  store ptr %0, ptr %2, align 8
  %3 = load ptr, ptr %2, align 8
  ret ptr %3
}

; Function Attrs: mustprogress nounwind uwtable
define linkonce_odr hidden noundef nonnull align 1 dereferenceable(1) ptr @_ZNSt11_Tuple_implILm1EJSt14default_deleteIN5clang9api_notes14APINotesWriter14ImplementationEEEE7_M_headERS6_(ptr noundef nonnull align 1 dereferenceable(1) %0) #0 comdat align 2 {
  %2 = alloca ptr, align 8
  store ptr %0, ptr %2, align 8
  %3 = load ptr, ptr %2, align 8
  %4 = call noundef nonnull align 1 dereferenceable(1) ptr @_ZNSt10_Head_baseILm1ESt14default_deleteIN5clang9api_notes14APINotesWriter14ImplementationEELb1EE7_M_headERS6_(ptr noundef nonnull align 1 dereferenceable(1) %3) #16
  ret ptr %4
}

; Function Attrs: mustprogress nounwind uwtable
define linkonce_odr hidden noundef nonnull align 8 dereferenceable(8) ptr @_ZNSt10_Head_baseILm0EPN5clang9api_notes14APINotesWriter14ImplementationELb0EE7_M_headERS5_(ptr noundef nonnull align 8 dereferenceable(8) %0) #0 comdat align 2 {
  %2 = alloca ptr, align 8
  store ptr %0, ptr %2, align 8
  %3 = load ptr, ptr %2, align 8
  %4 = getelementptr inbounds nuw %"struct.std::_Head_base.226", ptr %3, i32 0, i32 0
  ret ptr %4
}

; Function Attrs: mustprogress nounwind uwtable
define linkonce_odr noundef nonnull align 1 dereferenceable(1) ptr @_ZSt12__get_helperILm1ESt14default_deleteIN5clang9api_notes14APINotesWriter14ImplementationEEJEERT0_RSt11_Tuple_implIXT_EJS6_DpT1_EE(ptr noundef nonnull align 1 dereferenceable(1) %0) #0 comdat {
  %2 = alloca ptr, align 8
  store ptr %0, ptr %2, align 8
  %3 = load ptr, ptr %2, align 8
  %4 = call noundef nonnull align 1 dereferenceable(1) ptr @_ZNSt11_Tuple_implILm1EJSt14default_deleteIN5clang9api_notes14APINotesWriter14ImplementationEEEE7_M_headERS6_(ptr noundef nonnull align 1 dereferenceable(1) %3) #16
  ret ptr %4
}

; Function Attrs: mustprogress nounwind uwtable
define linkonce_odr hidden noundef nonnull align 8 dereferenceable(8) ptr @_ZNSt11_Tuple_implILm0EJPN5clang9api_notes14APINotesWriter14ImplementationESt14default_deleteIS3_EEE7_M_headERS7_(ptr noundef nonnull align 8 dereferenceable(8) %0) #0 comdat align 2 {
  %2 = alloca ptr, align 8
  store ptr %0, ptr %2, align 8
  %3 = load ptr, ptr %2, align 8
  %4 = call noundef nonnull align 8 dereferenceable(8) ptr @_ZNSt10_Head_baseILm0EPN5clang9api_notes14APINotesWriter14ImplementationELb0EE7_M_headERS5_(ptr noundef nonnull align 8 dereferenceable(8) %3) #16
  ret ptr %4
}

; Function Attrs: mustprogress nounwind uwtable
define linkonce_odr noundef nonnull align 1 dereferenceable(1) ptr @_ZSt3getILm1EJPN5clang9api_notes14APINotesWriter14ImplementationESt14default_deleteIS3_EEERNSt13tuple_elementIXT_ESt5tupleIJDpT0_EEE4typeERSB_(ptr noundef nonnull align 8 dereferenceable(8) %0) #0 comdat {
  %2 = alloca ptr, align 8
  store ptr %0, ptr %2, align 8
  %3 = load ptr, ptr %2, align 8
  %4 = call noundef nonnull align 1 dereferenceable(1) ptr @_ZSt12__get_helperILm1ESt14default_deleteIN5clang9api_notes14APINotesWriter14ImplementationEEJEERT0_RSt11_Tuple_implIXT_EJS6_DpT1_EE(ptr noundef nonnull align 1 dereferenceable(1) %3) #16
  ret ptr %4
}

; Function Attrs: mustprogress nounwind uwtable
define linkonce_odr noundef nonnull align 8 dereferenceable(8) ptr @_ZSt12__get_helperILm0EPN5clang9api_notes14APINotesWriter14ImplementationEJSt14default_deleteIS3_EEERT0_RSt11_Tuple_implIXT_EJS7_DpT1_EE(ptr noundef nonnull align 8 dereferenceable(8) %0) #0 comdat {
  %2 = alloca ptr, align 8
  store ptr %0, ptr %2, align 8
  %3 = load ptr, ptr %2, align 8
  %4 = call noundef nonnull align 8 dereferenceable(8) ptr @_ZNSt11_Tuple_implILm0EJPN5clang9api_notes14APINotesWriter14ImplementationESt14default_deleteIS3_EEE7_M_headERS7_(ptr noundef nonnull align 8 dereferenceable(8) %3) #16
  ret ptr %4
}

; Function Attrs: mustprogress nounwind uwtable
define linkonce_odr hidden noundef nonnull align 1 dereferenceable(1) ptr @_ZNSt15__uniq_ptr_implIN5clang9api_notes14APINotesWriter14ImplementationESt14default_deleteIS3_EE10_M_deleterEv(ptr noundef nonnull align 8 dereferenceable(8) %0) #0 comdat align 2 {
  %2 = alloca ptr, align 8
  store ptr %0, ptr %2, align 8
  %3 = load ptr, ptr %2, align 8
  %4 = getelementptr inbounds nuw %"class.std::__uniq_ptr_impl.221", ptr %3, i32 0, i32 0
  %5 = call noundef nonnull align 1 dereferenceable(1) ptr @_ZSt3getILm1EJPN5clang9api_notes14APINotesWriter14ImplementationESt14default_deleteIS3_EEERNSt13tuple_elementIXT_ESt5tupleIJDpT0_EEE4typeERSB_(ptr noundef nonnull align 8 dereferenceable(8) %4) #16
  ret ptr %5
}

; Function Attrs: mustprogress nounwind uwtable
define linkonce_odr noundef nonnull align 8 dereferenceable(8) ptr @_ZSt3getILm0EJPN5clang9api_notes14APINotesWriter14ImplementationESt14default_deleteIS3_EEERNSt13tuple_elementIXT_ESt5tupleIJDpT0_EEE4typeERSB_(ptr noundef nonnull align 8 dereferenceable(8) %0) #0 comdat {
  %2 = alloca ptr, align 8
  store ptr %0, ptr %2, align 8
  %3 = load ptr, ptr %2, align 8
  %4 = call noundef nonnull align 8 dereferenceable(8) ptr @_ZSt12__get_helperILm0EPN5clang9api_notes14APINotesWriter14ImplementationEJSt14default_deleteIS3_EEERT0_RSt11_Tuple_implIXT_EJS7_DpT1_EE(ptr noundef nonnull align 8 dereferenceable(8) %3) #16
  ret ptr %4
}

; Function Attrs: mustprogress nounwind uwtable
define linkonce_odr hidden void @_ZNKSt14default_deleteIN5clang9api_notes14APINotesWriter14ImplementationEEclEPS3_(ptr noundef nonnull align 1 dereferenceable(1) %0, ptr noundef %1) #0 comdat align 2 {
  %3 = alloca ptr, align 8
  %4 = alloca ptr, align 8
  store ptr %0, ptr %3, align 8
  store ptr %1, ptr %4, align 8
  %5 = load ptr, ptr %4, align 8
  %6 = icmp eq ptr %5, null
  br i1 %6, label %8, label %7

7:                                                ; preds = %2
  call void @_ZN5clang9api_notes14APINotesWriter14ImplementationD2Ev(ptr noundef nonnull align 8 dereferenceable(904) %5) #16
  call void @_ZdlPvm(ptr noundef %5, i64 noundef 904) #18
  br label %8

8:                                                ; preds = %7, %2
  ret void
}

; Function Attrs: mustprogress nounwind uwtable
define linkonce_odr hidden noundef nonnull align 1 dereferenceable(1) ptr @_ZNSt10unique_ptrIN5clang9api_notes14APINotesWriter14ImplementationESt14default_deleteIS3_EE11get_deleterEv(ptr noundef nonnull align 8 dereferenceable(8) %0) #0 comdat align 2 {
  %2 = alloca ptr, align 8
  store ptr %0, ptr %2, align 8
  %3 = load ptr, ptr %2, align 8
  %4 = getelementptr inbounds nuw %"class.std::unique_ptr.219", ptr %3, i32 0, i32 0
  %5 = call noundef nonnull align 1 dereferenceable(1) ptr @_ZNSt15__uniq_ptr_implIN5clang9api_notes14APINotesWriter14ImplementationESt14default_deleteIS3_EE10_M_deleterEv(ptr noundef nonnull align 8 dereferenceable(8) %4) #16
  ret ptr %5
}

; Function Attrs: mustprogress nounwind uwtable
define linkonce_odr hidden noundef nonnull align 8 dereferenceable(8) ptr @_ZNSt15__uniq_ptr_implIN5clang9api_notes14APINotesWriter14ImplementationESt14default_deleteIS3_EE6_M_ptrEv(ptr noundef nonnull align 8 dereferenceable(8) %0) #0 comdat align 2 {
  %2 = alloca ptr, align 8
  store ptr %0, ptr %2, align 8
  %3 = load ptr, ptr %2, align 8
  %4 = getelementptr inbounds nuw %"class.std::__uniq_ptr_impl.221", ptr %3, i32 0, i32 0
  %5 = call noundef nonnull align 8 dereferenceable(8) ptr @_ZSt3getILm0EJPN5clang9api_notes14APINotesWriter14ImplementationESt14default_deleteIS3_EEERNSt13tuple_elementIXT_ESt5tupleIJDpT0_EEE4typeERSB_(ptr noundef nonnull align 8 dereferenceable(8) %4) #16
  ret ptr %5
}

; Function Attrs: mustprogress nounwind uwtable
define linkonce_odr hidden void @_ZNSt10unique_ptrIN5clang9api_notes14APINotesWriter14ImplementationESt14default_deleteIS3_EED2Ev(ptr noundef nonnull align 8 dereferenceable(8) %0) unnamed_addr #0 comdat align 2 {
  %2 = alloca ptr, align 8
  %3 = alloca ptr, align 8
  store ptr %0, ptr %2, align 8
  %4 = load ptr, ptr %2, align 8
  %5 = getelementptr inbounds nuw %"class.std::unique_ptr.219", ptr %4, i32 0, i32 0
  %6 = call noundef nonnull align 8 dereferenceable(8) ptr @_ZNSt15__uniq_ptr_implIN5clang9api_notes14APINotesWriter14ImplementationESt14default_deleteIS3_EE6_M_ptrEv(ptr noundef nonnull align 8 dereferenceable(8) %5) #16
  store ptr %6, ptr %3, align 8
  %7 = load ptr, ptr %3, align 8
  %8 = load ptr, ptr %7, align 8
  %9 = icmp ne ptr %8, null
  br i1 %9, label %10, label %14

10:                                               ; preds = %1
  %11 = call noundef nonnull align 1 dereferenceable(1) ptr @_ZNSt10unique_ptrIN5clang9api_notes14APINotesWriter14ImplementationESt14default_deleteIS3_EE11get_deleterEv(ptr noundef nonnull align 8 dereferenceable(8) %4) #16
  %12 = load ptr, ptr %3, align 8
  %13 = load ptr, ptr %12, align 8
  call void @_ZNKSt14default_deleteIN5clang9api_notes14APINotesWriter14ImplementationEEclEPS3_(ptr noundef nonnull align 1 dereferenceable(1) %11, ptr noundef %13)
  br label %14

14:                                               ; preds = %10, %1
  %15 = load ptr, ptr %3, align 8
  store ptr null, ptr %15, align 8
  ret void
}

; Function Attrs: mustprogress nounwind uwtable
define dso_local void @_ZN5clang9api_notes14APINotesWriterD2Ev(ptr noundef nonnull align 8 dereferenceable(8) %0) unnamed_addr #0 align 2 {
  %2 = alloca ptr, align 8
  store ptr %0, ptr %2, align 8
  %3 = load ptr, ptr %2, align 8
  %4 = getelementptr inbounds nuw %"class.clang::api_notes::APINotesWriter", ptr %3, i32 0, i32 0
  call void @_ZNSt10unique_ptrIN5clang9api_notes14APINotesWriter14ImplementationESt14default_deleteIS3_EED2Ev(ptr noundef nonnull align 8 dereferenceable(8) %4) #16
  ret void
}