; Function Attrs: mustprogress nounwind uwtable
define dso_local void @_ZN5clang9api_notes14APINotesWriterD2Ev(ptr noundef nonnull align 8 captures(none) dereferenceable(8) %0) unnamed_addr #0 align 2 {
  %2 = load ptr, ptr %0, align 8
  %.not.i = icmp eq ptr %2, null
  br i1 %.not.i, label %_ZNSt10unique_ptrIN5clang9api_notes14APINotesWriter14ImplementationESt14default_deleteIS3_EED2Ev.exit, label %_ZNKSt14default_deleteIN5clang9api_notes14APINotesWriter14ImplementationEEclEPS3_.exit.i

_ZNKSt14default_deleteIN5clang9api_notes14APINotesWriter14ImplementationEEclEPS3_.exit.i: ; preds = %1
  tail call void @_ZN5clang9api_notes14APINotesWriter14ImplementationD2Ev(ptr noundef nonnull align 8 dereferenceable(904) %2) #16
  tail call void @_ZdlPvm(ptr noundef nonnull %2, i64 noundef 904) #19
  br label %_ZNSt10unique_ptrIN5clang9api_notes14APINotesWriter14ImplementationESt14default_deleteIS3_EED2Ev.exit

_ZNSt10unique_ptrIN5clang9api_notes14APINotesWriter14ImplementationESt14default_deleteIS3_EED2Ev.exit: ; preds = %1, %_ZNKSt14default_deleteIN5clang9api_notes14APINotesWriter14ImplementationEEclEPS3_.exit.i
  store ptr null, ptr %0, align 8
  ret void
}